target datalayout = "e-m:e-p270:32:32-p271:32:32-p272:64:64-i64:64-i128:128-f80:128-n8:16:32:64-S128"
target triple = "x86_64-pc-linux-gnu"

%struct.___itt_global = type { [8 x i8], i64, i64, i64, i64, i64, i64, %union.pthread_mutex_t, ptr, ptr, ptr, ptr, ptr, ptr, ptr, ptr, i32, ptr, i32, ptr, ptr }
%union.pthread_mutex_t = type { %struct.__pthread_mutex_s }
%struct.__pthread_mutex_s = type { i32, i32, i32, i32, i32, i16, i16, %struct.__pthread_internal_list }
%struct.__pthread_internal_list = type { ptr, ptr }

@__itt_av_save_ptr__3_0 = global ptr @_ZL22__itt_av_save_init_3_0PviPKiiPKci, align 8

; Function Attrs: mustprogress sspstrong uwtable
define internal noundef i32 @_ZL22__itt_av_save_init_3_0PviPKiiPKci(ptr noundef %0, i32 noundef %1, ptr noundef %2, i32 noundef %3, ptr noundef %4, i32 noundef %5) #0 {
  %7 = alloca i32, align 4
  %8 = alloca ptr, align 8
  %9 = alloca i32, align 4
  %10 = alloca ptr, align 8
  %11 = alloca i32, align 4
  %12 = alloca ptr, align 8
  %13 = alloca i32, align 4
  store ptr %0, ptr %8, align 8, !tbaa !22
  store i32 %1, ptr %9, align 4, !tbaa !25
  store ptr %2, ptr %10, align 8, !tbaa !69
  store i32 %3, ptr %11, align 4, !tbaa !25
  store ptr %4, ptr %12, align 8, !tbaa !23
  store i32 %5, ptr %13, align 4, !tbaa !25
  %14 = load volatile i64, ptr getelementptr inbounds nuw (%struct.___itt_global, ptr @__itt__ittapi_global, i32 0, i32 4), align 8, !tbaa !3
  %15 = icmp ne i64 %14, 0
  br i1 %15, label %20, label %16

16:                                               ; preds = %6
  %17 = load ptr, ptr getelementptr inbounds nuw (%struct.___itt_global, ptr @__itt__ittapi_global, i32 0, i32 13), align 8, !tbaa !21
  %18 = icmp eq ptr %17, null
  br i1 %18, label %19, label %20

19:                                               ; preds = %16
  call void @ITT_DoOneTimeInitialization()
  br label %20

20:                                               ; preds = %19, %16, %6
  %21 = load ptr, ptr @__itt_av_save_ptr__3_0, align 8, !tbaa !22
  %22 = icmp ne ptr %21, null
  br i1 %22, label %23, label %35

23:                                               ; preds = %20
  %24 = load ptr, ptr @__itt_av_save_ptr__3_0, align 8, !tbaa !22
  %25 = icmp ne ptr %24, @_ZL22__itt_av_save_init_3_0PviPKiiPKci
  br i1 %25, label %26, label %35

26:                                               ; preds = %23
  %27 = load ptr, ptr @__itt_av_save_ptr__3_0, align 8, !tbaa !22
  %28 = load ptr, ptr %8, align 8, !tbaa !22
  %29 = load i32, ptr %9, align 4, !tbaa !25
  %30 = load ptr, ptr %10, align 8, !tbaa !69
  %31 = load i32, ptr %11, align 4, !tbaa !25
  %32 = load ptr, ptr %12, align 8, !tbaa !23
  %33 = load i32, ptr %13, align 4, !tbaa !25
  %34 = call i32 %27(ptr noundef %28, i32 noundef %29, ptr noundef %30, i32 noundef %31, ptr noundef %32, i32 noundef %33)
  store i32 %34, ptr %7, align 4
  br label %36

35:                                               ; preds = %23, %20
  store i32 0, ptr %7, align 4
  br label %36

36:                                               ; preds = %35, %26
  %37 = load i32, ptr %7, align 4
  ret i32 %37
}