; Function Attrs: mustprogress sspstrong uwtable
define internal noundef i32 @_ZL22__itt_av_save_init_3_0PviPKiiPKci(ptr noundef %0, i32 noundef %1, ptr noundef %2, i32 noundef %3, ptr noundef %4, i32 noundef %5) #0 {
  %7 = load volatile i64, ptr getelementptr inbounds nuw (i8, ptr @__itt__ittapi_global, i64 32), align 8, !tbaa !3
  %8 = icmp eq i64 %7, 0
  %9 = load ptr, ptr getelementptr inbounds nuw (i8, ptr @__itt__ittapi_global, i64 136), align 8
  %10 = icmp eq ptr %9, null
  %or.cond = select i1 %8, i1 %10, i1 false
  br i1 %or.cond, label %11, label %12

11:                                               ; preds = %6
  tail call void @ITT_DoOneTimeInitialization()
  br label %12

12:                                               ; preds = %11, %6
  %13 = load ptr, ptr @__itt_av_save_ptr__3_0, align 8, !tbaa !21
  %14 = icmp ne ptr %13, null
  %15 = icmp ne ptr %13, @_ZL22__itt_av_save_init_3_0PviPKiiPKci
  %or.cond3 = and i1 %14, %15
  br i1 %or.cond3, label %16, label %18

16:                                               ; preds = %12
  %17 = tail call i32 %13(ptr noundef %0, i32 noundef %1, ptr noundef %2, i32 noundef %3, ptr noundef %4, i32 noundef %5)
  br label %18

18:                                               ; preds = %12, %16
  %.0 = phi i32 [ %17, %16 ], [ 0, %12 ]
  ret i32 %.0
}